; Function Attrs: mustprogress nofree nounwind willreturn memory(read, inaccessiblemem: none) uwtable
define internal noundef zeroext i1 @_ZN7doctest12_GLOBAL__N_119nameOrderComparatorEPKNS_6detail8TestCaseES4_(ptr noundef readonly captures(none) %0, ptr noundef readonly captures(none) %1) #21 {
  %3 = getelementptr inbounds nuw i8, ptr %0, i64 32
  %4 = load ptr, ptr %3, align 8, !tbaa !206
  %5 = getelementptr inbounds nuw i8, ptr %1, i64 32
  %6 = load ptr, ptr %5, align 8, !tbaa !206
  %7 = tail call i32 @strcmp(ptr noundef nonnull dereferenceable(1) %4, ptr noundef nonnull dereferenceable(1) %6) #52
  %.not = icmp eq i32 %7, 0
  br i1 %.not, label %10, label %8

8:                                                ; preds = %2
  %9 = icmp slt i32 %7, 0
  br label %_ZN7doctest12_GLOBAL__N_120suiteOrderComparatorEPKNS_6detail8TestCaseES4_.exit

10:                                               ; preds = %2
  %11 = getelementptr inbounds nuw i8, ptr %0, i64 40
  %12 = load ptr, ptr %11, align 8, !tbaa !207
  %13 = getelementptr inbounds nuw i8, ptr %1, i64 40
  %14 = load ptr, ptr %13, align 8, !tbaa !207
  %15 = tail call i32 @strcmp(ptr noundef nonnull dereferenceable(1) %12, ptr noundef nonnull dereferenceable(1) %14) #52
  %.not.i = icmp eq i32 %15, 0
  br i1 %.not.i, label %18, label %16

16:                                               ; preds = %10
  %17 = icmp slt i32 %15, 0
  br label %_ZN7doctest12_GLOBAL__N_120suiteOrderComparatorEPKNS_6detail8TestCaseES4_.exit

18:                                               ; preds = %10
  %19 = getelementptr inbounds nuw i8, ptr %1, i64 23
  %20 = load i8, ptr %19, align 1, !tbaa !38
  %21 = load ptr, ptr %1, align 8
  %22 = icmp slt i8 %20, 0
  %.0.i.i.i.i.i = select i1 %22, ptr %21, ptr %1
  %23 = getelementptr inbounds nuw i8, ptr %0, i64 23
  %24 = load i8, ptr %23, align 1, !tbaa !38
  %25 = load ptr, ptr %0, align 8
  %26 = icmp slt i8 %24, 0
  %.0.i.i.i.i.i.i = select i1 %26, ptr %25, ptr %0
  %27 = tail call i32 @strcmp(ptr noundef nonnull dereferenceable(1) %.0.i.i.i.i.i.i, ptr noundef nonnull readonly dereferenceable(1) %.0.i.i.i.i.i) #52
  %.not.i.i = icmp eq i32 %27, 0
  br i1 %.not.i.i, label %30, label %28

28:                                               ; preds = %18
  %29 = icmp slt i32 %27, 0
  br label %_ZN7doctest12_GLOBAL__N_120suiteOrderComparatorEPKNS_6detail8TestCaseES4_.exit

30:                                               ; preds = %18
  %31 = getelementptr inbounds nuw i8, ptr %0, i64 24
  %32 = load i32, ptr %31, align 8, !tbaa !204
  %33 = getelementptr inbounds nuw i8, ptr %1, i64 24
  %34 = load i32, ptr %33, align 8, !tbaa !204
  %.not13.i.i = icmp eq i32 %32, %34
  br i1 %.not13.i.i, label %37, label %35

35:                                               ; preds = %30
  %36 = icmp ult i32 %32, %34
  br label %_ZN7doctest12_GLOBAL__N_120suiteOrderComparatorEPKNS_6detail8TestCaseES4_.exit

37:                                               ; preds = %30
  %38 = getelementptr inbounds nuw i8, ptr %0, i64 112
  %39 = load i32, ptr %38, align 8, !tbaa !226
  %40 = getelementptr inbounds nuw i8, ptr %1, i64 112
  %41 = load i32, ptr %40, align 8, !tbaa !226
  %42 = icmp slt i32 %39, %41
  br label %_ZN7doctest12_GLOBAL__N_120suiteOrderComparatorEPKNS_6detail8TestCaseES4_.exit

_ZN7doctest12_GLOBAL__N_120suiteOrderComparatorEPKNS_6detail8TestCaseES4_.exit: ; preds = %37, %35, %28, %16, %8
  %.0 = phi i1 [ %9, %8 ], [ %17, %16 ], [ %29, %28 ], [ %36, %35 ], [ %42, %37 ]
  ret i1 %.0
}